; Function Attrs: inlinehint mustprogress nounwind uwtable
define internal fastcc void @"_ZZN5ceres8internal14ParallelInvokeIZNS0_31BlockSparseJacobiPreconditioner10UpdateImplERKNS0_17BlockSparseMatrixEPKdE3$_1EEvPNS0_11ContextImplEiiiOT_iENUlRSB_E_D2Ev"(ptr %.16.val) unnamed_addr #17 align 2 personality ptr @__gxx_personality_v0 {
  %.not.i.i = icmp eq ptr %.16.val, null
  br i1 %.not.i.i, label %_ZNSt12__shared_ptrIN5ceres8internal19ParallelInvokeStateELN9__gnu_cxx12_Lock_policyE2EED2Ev.exit, label %1

1:                                                ; preds = %0
  %2 = getelementptr inbounds nuw i8, ptr %.16.val, i64 8
  %3 = load atomic i64, ptr %2 acquire, align 8
  %4 = icmp eq i64 %3, 4294967297
  %5 = trunc i64 %3 to i32
  br i1 %4, label %6, label %14

6:                                                ; preds = %1
  store i32 0, ptr %2, align 8, !tbaa !100
  %7 = getelementptr inbounds nuw i8, ptr %.16.val, i64 12
  store i32 0, ptr %7, align 4, !tbaa !102
  %8 = load ptr, ptr %.16.val, align 8, !tbaa !3
  %9 = getelementptr inbounds nuw i8, ptr %8, i64 16
  %10 = load ptr, ptr %9, align 8
  tail call void %10(ptr noundef nonnull align 8 dereferenceable(16) %.16.val) #33
  %11 = load ptr, ptr %.16.val, align 8, !tbaa !3
  %12 = getelementptr inbounds nuw i8, ptr %11, i64 24
  %13 = load ptr, ptr %12, align 8
  tail call void %13(ptr noundef nonnull align 8 dereferenceable(16) %.16.val) #33
  br label %_ZNSt12__shared_ptrIN5ceres8internal19ParallelInvokeStateELN9__gnu_cxx12_Lock_policyE2EED2Ev.exit

14:                                               ; preds = %1
  %15 = load i8, ptr @__libc_single_threaded, align 1, !tbaa !108
  %.not.i.i.i = icmp eq i8 %15, 0
  br i1 %.not.i.i.i, label %18, label %16

16:                                               ; preds = %14
  %17 = add nsw i32 %5, -1
  store i32 %17, ptr %2, align 4, !tbaa !21
  br label %_ZN9__gnu_cxx27__exchange_and_add_dispatchEPii.exit.i.i.i

18:                                               ; preds = %14
  %19 = atomicrmw volatile add ptr %2, i32 -1 acq_rel, align 4
  br label %_ZN9__gnu_cxx27__exchange_and_add_dispatchEPii.exit.i.i.i

_ZN9__gnu_cxx27__exchange_and_add_dispatchEPii.exit.i.i.i: ; preds = %18, %16
  %.0.i.i.i.i = phi i32 [ %5, %16 ], [ %19, %18 ]
  %20 = icmp eq i32 %.0.i.i.i.i, 1
  br i1 %20, label %21, label %_ZNSt12__shared_ptrIN5ceres8internal19ParallelInvokeStateELN9__gnu_cxx12_Lock_policyE2EED2Ev.exit, !prof !96

21:                                               ; preds = %_ZN9__gnu_cxx27__exchange_and_add_dispatchEPii.exit.i.i.i
  tail call void @_ZNSt16_Sp_counted_baseILN9__gnu_cxx12_Lock_policyE2EE24_M_release_last_use_coldEv(ptr noundef nonnull align 8 dereferenceable(16) %.16.val) #33
  br label %_ZNSt12__shared_ptrIN5ceres8internal19ParallelInvokeStateELN9__gnu_cxx12_Lock_policyE2EED2Ev.exit

_ZNSt12__shared_ptrIN5ceres8internal19ParallelInvokeStateELN9__gnu_cxx12_Lock_policyE2EED2Ev.exit: ; preds = %0, %6, %_ZN9__gnu_cxx27__exchange_and_add_dispatchEPii.exit.i.i.i, %21
  ret void
}